target datalayout = "e-m:e-p270:32:32-p271:32:32-p272:64:64-i64:64-i128:128-f80:128-n8:16:32:64-S128"
target triple = "x86_64-pc-linux-gnu"

%class.obj_hashtable = type { %class.core_hashtable.base, [4 x i8] }
%class.core_hashtable.base = type <{ ptr, i32, i32, i32 }>
%"class.qe::mbi_plugin" = type { ptr, ptr, %class.ref_vector, %class.obj_hashtable, %class.svector, %"class.std::function" }
%class.ref_vector = type { %class.ref_vector_core }
%class.ref_vector_core = type { %class.ref_manager_wrapper, %class.ptr_vector }
%class.ref_manager_wrapper = type { ptr }
%class.ptr_vector = type { %class.vector }
%class.vector = type { ptr }
%class.svector = type { %class.vector.0 }
%class.vector.0 = type { ptr }
%"class.std::function" = type { %"class.std::_Function_base", ptr }
%"class.std::_Function_base" = type { %"union.std::_Any_data", ptr }
%"union.std::_Any_data" = type { %"union.std::_Nocopy_types" }
%"union.std::_Nocopy_types" = type { { i64, i64 } }
%class.ref_vector.1 = type { %class.ref_vector_core.2 }
%class.ref_vector_core.2 = type { %class.ref_manager_wrapper.3, %class.ptr_vector.4 }
%class.ref_manager_wrapper.3 = type { ptr }
%class.ptr_vector.4 = type { %class.vector.5 }
%class.vector.5 = type { ptr }
%class.obj_mark = type { [8 x i8], %class.bit_vector }
%class.bit_vector = type { i32, i32, ptr }
%class.ref = type { ptr }
%class.vector.78 = type { ptr }
%"class.mbp::arith_project_plugin" = type { %"class.mbp::project_plugin", ptr }
%"class.mbp::project_plugin" = type { ptr, ptr, %class.obj_mark, %class.ptr_vector.4, %class.obj_mark, %class.obj_mark, %class.ref_vector.1, %class.ref_vector.1, %class.ref_vector.1 }

; Function Attrs: mustprogress nounwind uwtable
define linkonce_odr hidden noundef nonnull align 8 dereferenceable(160) ptr @_ZN3refI5modelEdeEv(ptr noundef nonnull align 8 dereferenceable(8) %0) #8 comdat align 2 {
  %2 = alloca ptr, align 8
  store ptr %0, ptr %2, align 8, !tbaa !46
  %3 = load ptr, ptr %2, align 8
  %4 = getelementptr inbounds nuw %class.ref, ptr %3, i32 0, i32 0
  %5 = load ptr, ptr %4, align 8, !tbaa !137
  ret ptr %5
}

; Function Attrs: mustprogress nounwind uwtable
define linkonce_odr hidden noundef ptr @_ZNK3refI5modelE3getEv(ptr noundef nonnull align 8 dereferenceable(8) %0) #8 comdat align 2 {
  %2 = alloca ptr, align 8
  store ptr %0, ptr %2, align 8, !tbaa !46
  %3 = load ptr, ptr %2, align 8
  %4 = getelementptr inbounds nuw %class.ref, ptr %3, i32 0, i32 0
  %5 = load ptr, ptr %4, align 8, !tbaa !137
  ret ptr %5
}

; Function Attrs: mustprogress nounwind uwtable
define linkonce_odr hidden void @_ZN6vectorIN3mbp3defELb1EjEC2Ev(ptr noundef nonnull align 8 dereferenceable(8) %0) unnamed_addr #8 comdat align 2 {
  %2 = alloca ptr, align 8
  store ptr %0, ptr %2, align 8, !tbaa !253
  %3 = load ptr, ptr %2, align 8
  %4 = getelementptr inbounds nuw %class.vector.78, ptr %3, i32 0, i32 0
  store ptr null, ptr %4, align 8, !tbaa !255
  ret void
}

; Function Attrs: mustprogress uwtable
define hidden void @_ZN2qe9uflia_mbi13arith_projectER3refI5modelER10ref_vectorI3app11ast_managerERS5_I4exprS7_E(ptr dead_on_unwind noalias writable sret(%class.vector.78) align 8 %0, ptr noundef nonnull align 8 dereferenceable(168) %1, ptr noundef nonnull align 8 dereferenceable(8) %2, ptr noundef nonnull align 8 dereferenceable(16) %3, ptr noundef nonnull align 8 dereferenceable(16) %4) #4 align 2 personality ptr @__gxx_personality_v0 {
  %6 = alloca ptr, align 8
  %7 = alloca ptr, align 8
  %8 = alloca ptr, align 8
  %9 = alloca ptr, align 8
  %10 = alloca ptr, align 8
  %11 = alloca %"class.mbp::arith_project_plugin", align 8
  %12 = alloca ptr, align 8
  %13 = alloca i32, align 4
  %14 = alloca i1, align 1
  %15 = alloca i8, align 1
  store ptr %0, ptr %6, align 8
  store ptr %1, ptr %7, align 8, !tbaa !207
  store ptr %2, ptr %8, align 8, !tbaa !46
  store ptr %3, ptr %9, align 8, !tbaa !220
  store ptr %4, ptr %10, align 8, !tbaa !44
  %16 = load ptr, ptr %7, align 8
  call void @llvm.lifetime.start.p0(i64 152, ptr %11) #3
  %17 = getelementptr inbounds nuw %"class.qe::mbi_plugin", ptr %16, i32 0, i32 1
  %18 = load ptr, ptr %17, align 8, !tbaa !85
  call void @_ZN3mbp20arith_project_pluginC1ER11ast_manager(ptr noundef nonnull align 8 dereferenceable(152) %11, ptr noundef nonnull align 8 dereferenceable(976) %18)
  invoke void @_ZN3mbp20arith_project_plugin18set_check_purifiedEb(ptr noundef nonnull align 8 dereferenceable(152) %11, i1 noundef zeroext false)
          to label %19 unwind label %34

19:                                               ; preds = %5
  store i1 false, ptr %14, align 1
  call void @_ZN6vectorIN3mbp3defELb1EjEC2Ev(ptr noundef nonnull align 8 dereferenceable(8) %0) #3
  call void @llvm.lifetime.start.p0(i64 1, ptr %15) #3
  %20 = load ptr, ptr %8, align 8, !tbaa !46
  %21 = invoke noundef ptr @_ZNK3refI5modelE3getEv(ptr noundef nonnull align 8 dereferenceable(8) %20)
          to label %22 unwind label %38

22:                                               ; preds = %19
  %23 = load ptr, ptr %9, align 8, !tbaa !220
  %24 = load ptr, ptr %10, align 8, !tbaa !44
  %25 = invoke noundef zeroext i1 @_ZN3mbp20arith_project_plugin7projectER5modelR10ref_vectorI3app11ast_managerERS3_I4exprS5_ER6vectorINS_3defELb1EjE(ptr noundef nonnull align 8 dereferenceable(152) %11, ptr noundef nonnull align 8 dereferenceable(160) %21, ptr noundef nonnull align 8 dereferenceable(16) %23, ptr noundef nonnull align 8 dereferenceable(16) %24, ptr noundef nonnull align 8 dereferenceable(8) %0)
          to label %26 unwind label %38

26:                                               ; preds = %22
  %27 = zext i1 %25 to i8
  store i8 %27, ptr %15, align 1, !tbaa !67
  %28 = load ptr, ptr %8, align 8, !tbaa !46
  %29 = invoke noundef nonnull align 8 dereferenceable(160) ptr @_ZN3refI5modelEdeEv(ptr noundef nonnull align 8 dereferenceable(8) %28)
          to label %30 unwind label %38

30:                                               ; preds = %26
  %31 = load ptr, ptr %10, align 8, !tbaa !44
  invoke void @_ZN2qe9uflia_mbi14fix_non_sharedER5modelR10ref_vectorI4expr11ast_managerE(ptr noundef nonnull align 8 dereferenceable(168) %16, ptr noundef nonnull align 8 dereferenceable(160) %29, ptr noundef nonnull align 8 dereferenceable(16) %31)
          to label %32 unwind label %38

32:                                               ; preds = %30
  store i1 true, ptr %14, align 1
  call void @llvm.lifetime.end.p0(i64 1, ptr %15) #3
  %33 = load i1, ptr %14, align 1
  br i1 %33, label %43, label %42

34:                                               ; preds = %5
  %35 = landingpad { ptr, i32 }
          cleanup
  %36 = extractvalue { ptr, i32 } %35, 0
  store ptr %36, ptr %12, align 8
  %37 = extractvalue { ptr, i32 } %35, 1
  store i32 %37, ptr %13, align 4
  br label %44

38:                                               ; preds = %30, %26, %22, %19
  %39 = landingpad { ptr, i32 }
          cleanup
  %40 = extractvalue { ptr, i32 } %39, 0
  store ptr %40, ptr %12, align 8
  %41 = extractvalue { ptr, i32 } %39, 1
  store i32 %41, ptr %13, align 4
  call void @llvm.lifetime.end.p0(i64 1, ptr %15) #3
  call void @_ZN6vectorIN3mbp3defELb1EjED2Ev(ptr noundef nonnull align 8 dereferenceable(8) %0) #3
  br label %44

42:                                               ; preds = %32
  call void @_ZN6vectorIN3mbp3defELb1EjED2Ev(ptr noundef nonnull align 8 dereferenceable(8) %0) #3
  br label %43

43:                                               ; preds = %42, %32
  call void @_ZN3mbp20arith_project_pluginD1Ev(ptr noundef nonnull align 8 dereferenceable(152) %11) #3
  call void @llvm.lifetime.end.p0(i64 152, ptr %11) #3
  ret void

44:                                               ; preds = %38, %34
  call void @_ZN3mbp20arith_project_pluginD1Ev(ptr noundef nonnull align 8 dereferenceable(152) %11) #3
  call void @llvm.lifetime.end.p0(i64 152, ptr %11) #3
  br label %45

45:                                               ; preds = %44
  %46 = load ptr, ptr %12, align 8
  %47 = load i32, ptr %13, align 4
  %48 = insertvalue { ptr, i32 } poison, ptr %46, 0
  %49 = insertvalue { ptr, i32 } %48, i32 %47, 1
  resume { ptr, i32 } %49
}