; Function Attrs: mustprogress uwtable
define hidden void @_ZN2qe9uflia_mbi13arith_projectER3refI5modelER10ref_vectorI3app11ast_managerERS5_I4exprS7_E(ptr dead_on_unwind noalias writable sret(%class.vector.78) align 8 %0, ptr noundef nonnull readonly align 8 captures(none) dereferenceable(168) %1, ptr noundef nonnull readonly align 8 captures(none) dereferenceable(8) %2, ptr noundef nonnull align 8 dereferenceable(16) %3, ptr noundef nonnull align 8 dereferenceable(16) %4) local_unnamed_addr #3 align 2 personality ptr @__gxx_personality_v0 {
  %6 = alloca %"class.mbp::arith_project_plugin", align 8
  call void @llvm.lifetime.start.p0(i64 152, ptr nonnull %6) #25
  %7 = getelementptr inbounds nuw i8, ptr %1, i64 8
  %8 = load ptr, ptr %7, align 8, !tbaa !92
  call void @_ZN3mbp20arith_project_pluginC1ER11ast_manager(ptr noundef nonnull align 8 dereferenceable(152) %6, ptr noundef nonnull align 8 dereferenceable(976) %8)
  invoke void @_ZN3mbp20arith_project_plugin18set_check_purifiedEb(ptr noundef nonnull align 8 dereferenceable(152) %6, i1 noundef zeroext false)
          to label %9 unwind label %14

9:                                                ; preds = %5
  store ptr null, ptr %0, align 8, !tbaa !267
  %10 = load ptr, ptr %2, align 8, !tbaa !131
  %11 = invoke noundef zeroext i1 @_ZN3mbp20arith_project_plugin7projectER5modelR10ref_vectorI3app11ast_managerERS3_I4exprS5_ER6vectorINS_3defELb1EjE(ptr noundef nonnull align 8 dereferenceable(152) %6, ptr noundef nonnull align 8 dereferenceable(160) %10, ptr noundef nonnull align 8 dereferenceable(16) %3, ptr noundef nonnull align 8 dereferenceable(16) %4, ptr noundef nonnull align 8 dereferenceable(8) %0)
          to label %12 unwind label %16

12:                                               ; preds = %9
  %13 = load ptr, ptr %2, align 8, !tbaa !131
  invoke void @_ZN2qe9uflia_mbi14fix_non_sharedER5modelR10ref_vectorI4expr11ast_managerE(ptr noundef nonnull align 8 dereferenceable(168) %1, ptr noundef nonnull align 8 dereferenceable(160) %13, ptr noundef nonnull align 8 dereferenceable(16) %4)
          to label %18 unwind label %16

14:                                               ; preds = %5
  %15 = landingpad { ptr, i32 }
          cleanup
  br label %19

16:                                               ; preds = %12, %9
  %17 = landingpad { ptr, i32 }
          cleanup
  call void @_ZN6vectorIN3mbp3defELb1EjED2Ev(ptr noundef nonnull align 8 dereferenceable(8) %0) #25
  br label %19

18:                                               ; preds = %12
  call void @_ZN3mbp20arith_project_pluginD1Ev(ptr noundef nonnull align 8 dereferenceable(152) %6) #25
  call void @llvm.lifetime.end.p0(i64 152, ptr nonnull %6) #25
  ret void

19:                                               ; preds = %16, %14
  %.pn = phi { ptr, i32 } [ %17, %16 ], [ %15, %14 ]
  call void @_ZN3mbp20arith_project_pluginD1Ev(ptr noundef nonnull align 8 dereferenceable(152) %6) #25
  call void @llvm.lifetime.end.p0(i64 152, ptr nonnull %6) #25
  resume { ptr, i32 } %.pn
}